target datalayout = "e-m:e-p270:32:32-p271:32:32-p272:64:64-i64:64-i128:128-f80:128-n8:16:32:64-S128"
target triple = "x86_64-pc-linux-gnu"

@hf_gsm_a_rr_timing_adv = internal global i32 0, align 4
@hf_gsm_a_rr_tfi_assignment = internal global i32 0, align 4
@hf_gsm_a_rr_p0 = internal global i32 0, align 4
@hf_gsm_a_rr_pr_mode = internal global i32 0, align 4
@hf_gsm_a_rr_egprs_mcs = internal global i32 0, align 4
@hf_gsm_a_rr_gamma = internal global i32 0, align 4
@hf_gsm_a_rr_ec_enhanced_access_burst = internal global i32 0, align 4
@hf_gsm_a_rr_ec_starting_ul_timeslot = internal global i32 0, align 4
@hf_gsm_a_rr_ec_starting_dl_timeslot_offset = internal global i32 0, align 4
@hf_gsm_a_rr_ec_overlaid_cdma_code = internal global i32 0, align 4
@hf_gsm_a_rr_ec_mcs_exist = internal global i32 0, align 4
@hf_gsm_a_rr_ec_start_first_ul_data_block = internal global i32 0, align 4
@hf_gsm_a_rr_ec_fua_gap_list = internal global i32 0, align 4
@hf_gsm_a_rr_ec_start_fn_next_data_block_exist = internal global i32 0, align 4
@hf_gsm_a_rr_ec_start_fn_next_data_block = internal global i32 0, align 4
@hf_gsm_a_rr_p0_present = internal global i32 0, align 4
@hf_gsm_a_rr_timing_adv_present = internal global i32 0, align 4

; Function Attrs: null_pointer_is_valid sspstrong uwtable
define internal zeroext i1 @gsm_rr_csn_flag(ptr noundef %0, ptr noundef %1, i32 noundef %2, i32 noundef %3) #1 {
  %5 = alloca ptr, align 8
  %6 = alloca ptr, align 8
  %7 = alloca i32, align 4
  %8 = alloca i32, align 4
  %9 = alloca i8, align 1
  %10 = alloca i8, align 1
  store ptr %0, ptr %5, align 8
  store ptr %1, ptr %6, align 8
  store i32 %2, ptr %7, align 4
  store i32 %3, ptr %8, align 4
  call void @llvm.lifetime.start.p0(i64 1, ptr %9) #11
  %11 = load i32, ptr %7, align 4
  %12 = srem i32 %11, 8
  %13 = ashr i32 128, %12
  %14 = trunc i32 %13 to i8
  store i8 %14, ptr %9, align 1
  call void @llvm.lifetime.start.p0(i64 1, ptr %10) #11
  %15 = load ptr, ptr %5, align 8
  %16 = load i32, ptr %7, align 4
  %17 = ashr i32 %16, 3
  %18 = call zeroext i8 @tvb_get_uint8(ptr noundef %15, i32 noundef %17)
  store i8 %18, ptr %10, align 1
  %19 = load ptr, ptr %6, align 8
  %20 = load i32, ptr %8, align 4
  %21 = load ptr, ptr %5, align 8
  %22 = load i32, ptr %7, align 4
  %23 = call ptr @proto_tree_add_bits_item(ptr noundef %19, i32 noundef %20, ptr noundef %21, i32 noundef %22, i32 noundef 1, i32 noundef 0)
  %24 = load i8, ptr %10, align 1
  %25 = zext i8 %24 to i32
  %26 = load i8, ptr %9, align 1
  %27 = zext i8 %26 to i32
  %28 = and i32 %25, %27
  %29 = icmp ne i32 %28, 0
  call void @llvm.lifetime.end.p0(i64 1, ptr %10) #11
  call void @llvm.lifetime.end.p0(i64 1, ptr %9) #11
  ret i1 %29
}

; Function Attrs: null_pointer_is_valid sspstrong uwtable
define internal zeroext i16 @de_rr_ec_fua(ptr noundef %0, ptr noundef %1, ptr noundef %2, i32 noundef %3, i32 noundef %4, ptr noundef %5, i32 noundef %6) #1 {
  %8 = alloca ptr, align 8
  %9 = alloca ptr, align 8
  %10 = alloca ptr, align 8
  %11 = alloca i32, align 4
  %12 = alloca i32, align 4
  %13 = alloca ptr, align 8
  %14 = alloca i32, align 4
  %15 = alloca i32, align 4
  store ptr %0, ptr %8, align 8
  store ptr %1, ptr %9, align 8
  store ptr %2, ptr %10, align 8
  store i32 %3, ptr %11, align 4
  store i32 %4, ptr %12, align 4
  store ptr %5, ptr %13, align 8
  store i32 %6, ptr %14, align 4
  call void @llvm.lifetime.start.p0(i64 4, ptr %15) #11
  %16 = load i32, ptr %11, align 4
  %17 = shl i32 %16, 3
  store i32 %17, ptr %15, align 4
  %18 = load ptr, ptr %9, align 8
  %19 = load i32, ptr @hf_gsm_a_rr_ec_enhanced_access_burst, align 4
  %20 = load ptr, ptr %8, align 8
  %21 = load i32, ptr %15, align 4
  %22 = call ptr @proto_tree_add_bits_item(ptr noundef %18, i32 noundef %19, ptr noundef %20, i32 noundef %21, i32 noundef 1, i32 noundef 0)
  %23 = load i32, ptr %15, align 4
  %24 = add i32 %23, 1
  store i32 %24, ptr %15, align 4
  %25 = load ptr, ptr %8, align 8
  %26 = load ptr, ptr %9, align 8
  %27 = load i32, ptr %15, align 4
  %28 = add i32 %27, 1
  store i32 %28, ptr %15, align 4
  %29 = load i32, ptr @hf_gsm_a_rr_timing_adv_present, align 4
  %30 = call zeroext i1 @gsm_rr_csn_flag(ptr noundef %25, ptr noundef %26, i32 noundef %27, i32 noundef %29)
  br i1 %30, label %31, label %39

31:                                               ; preds = %7
  %32 = load ptr, ptr %9, align 8
  %33 = load i32, ptr @hf_gsm_a_rr_timing_adv, align 4
  %34 = load ptr, ptr %8, align 8
  %35 = load i32, ptr %15, align 4
  %36 = call ptr @proto_tree_add_bits_item(ptr noundef %32, i32 noundef %33, ptr noundef %34, i32 noundef %35, i32 noundef 6, i32 noundef 0)
  %37 = load i32, ptr %15, align 4
  %38 = add i32 %37, 6
  store i32 %38, ptr %15, align 4
  br label %39

39:                                               ; preds = %31, %7
  %40 = load ptr, ptr %9, align 8
  %41 = load i32, ptr @hf_gsm_a_rr_ec_starting_ul_timeslot, align 4
  %42 = load ptr, ptr %8, align 8
  %43 = load i32, ptr %15, align 4
  %44 = call ptr @proto_tree_add_bits_item(ptr noundef %40, i32 noundef %41, ptr noundef %42, i32 noundef %43, i32 noundef 3, i32 noundef 0)
  %45 = load i32, ptr %15, align 4
  %46 = add i32 %45, 3
  store i32 %46, ptr %15, align 4
  %47 = load ptr, ptr %9, align 8
  %48 = load i32, ptr @hf_gsm_a_rr_tfi_assignment, align 4
  %49 = load ptr, ptr %8, align 8
  %50 = load i32, ptr %15, align 4
  %51 = call ptr @proto_tree_add_bits_item(ptr noundef %47, i32 noundef %48, ptr noundef %49, i32 noundef %50, i32 noundef 5, i32 noundef 0)
  %52 = load i32, ptr %15, align 4
  %53 = add i32 %52, 5
  store i32 %53, ptr %15, align 4
  %54 = load ptr, ptr %9, align 8
  %55 = load i32, ptr @hf_gsm_a_rr_ec_starting_dl_timeslot_offset, align 4
  %56 = load ptr, ptr %8, align 8
  %57 = load i32, ptr %15, align 4
  %58 = call ptr @proto_tree_add_bits_item(ptr noundef %54, i32 noundef %55, ptr noundef %56, i32 noundef %57, i32 noundef 2, i32 noundef 0)
  %59 = load i32, ptr %15, align 4
  %60 = add i32 %59, 2
  store i32 %60, ptr %15, align 4
  %61 = load ptr, ptr %9, align 8
  %62 = load i32, ptr @hf_gsm_a_rr_ec_overlaid_cdma_code, align 4
  %63 = load ptr, ptr %8, align 8
  %64 = load i32, ptr %15, align 4
  %65 = call ptr @proto_tree_add_bits_item(ptr noundef %61, i32 noundef %62, ptr noundef %63, i32 noundef %64, i32 noundef 2, i32 noundef 0)
  %66 = load i32, ptr %15, align 4
  %67 = add i32 %66, 2
  store i32 %67, ptr %15, align 4
  %68 = load ptr, ptr %8, align 8
  %69 = load ptr, ptr %9, align 8
  %70 = load i32, ptr %15, align 4
  %71 = add i32 %70, 1
  store i32 %71, ptr %15, align 4
  %72 = load i32, ptr @hf_gsm_a_rr_ec_mcs_exist, align 4
  %73 = call zeroext i1 @gsm_rr_csn_flag(ptr noundef %68, ptr noundef %69, i32 noundef %70, i32 noundef %72)
  br i1 %73, label %74, label %82

74:                                               ; preds = %39
  %75 = load ptr, ptr %9, align 8
  %76 = load i32, ptr @hf_gsm_a_rr_egprs_mcs, align 4
  %77 = load ptr, ptr %8, align 8
  %78 = load i32, ptr %15, align 4
  %79 = call ptr @proto_tree_add_bits_item(ptr noundef %75, i32 noundef %76, ptr noundef %77, i32 noundef %78, i32 noundef 4, i32 noundef 0)
  %80 = load i32, ptr %15, align 4
  %81 = add i32 %80, 4
  store i32 %81, ptr %15, align 4
  br label %82

82:                                               ; preds = %74, %39
  %83 = load ptr, ptr %9, align 8
  %84 = load i32, ptr @hf_gsm_a_rr_gamma, align 4
  %85 = load ptr, ptr %8, align 8
  %86 = load i32, ptr %15, align 4
  %87 = call ptr @proto_tree_add_bits_item(ptr noundef %83, i32 noundef %84, ptr noundef %85, i32 noundef %86, i32 noundef 5, i32 noundef 0)
  %88 = load i32, ptr %15, align 4
  %89 = add i32 %88, 5
  store i32 %89, ptr %15, align 4
  %90 = load ptr, ptr %8, align 8
  %91 = load ptr, ptr %9, align 8
  %92 = load i32, ptr %15, align 4
  %93 = add i32 %92, 1
  store i32 %93, ptr %15, align 4
  %94 = load i32, ptr @hf_gsm_a_rr_p0_present, align 4
  %95 = call zeroext i1 @gsm_rr_csn_flag(ptr noundef %90, ptr noundef %91, i32 noundef %92, i32 noundef %94)
  br i1 %95, label %96, label %111

96:                                               ; preds = %82
  %97 = load ptr, ptr %9, align 8
  %98 = load i32, ptr @hf_gsm_a_rr_p0, align 4
  %99 = load ptr, ptr %8, align 8
  %100 = load i32, ptr %15, align 4
  %101 = call ptr @proto_tree_add_bits_item(ptr noundef %97, i32 noundef %98, ptr noundef %99, i32 noundef %100, i32 noundef 4, i32 noundef 0)
  %102 = load i32, ptr %15, align 4
  %103 = add i32 %102, 4
  store i32 %103, ptr %15, align 4
  %104 = load ptr, ptr %9, align 8
  %105 = load i32, ptr @hf_gsm_a_rr_pr_mode, align 4
  %106 = load ptr, ptr %8, align 8
  %107 = load i32, ptr %15, align 4
  %108 = call ptr @proto_tree_add_bits_item(ptr noundef %104, i32 noundef %105, ptr noundef %106, i32 noundef %107, i32 noundef 1, i32 noundef 0)
  %109 = load i32, ptr %15, align 4
  %110 = add i32 %109, 1
  store i32 %110, ptr %15, align 4
  br label %111

111:                                              ; preds = %96, %82
  %112 = load ptr, ptr %9, align 8
  %113 = load i32, ptr @hf_gsm_a_rr_ec_start_first_ul_data_block, align 4
  %114 = load ptr, ptr %8, align 8
  %115 = load i32, ptr %15, align 4
  %116 = call ptr @proto_tree_add_bits_item(ptr noundef %112, i32 noundef %113, ptr noundef %114, i32 noundef %115, i32 noundef 4, i32 noundef 0)
  %117 = load i32, ptr %15, align 4
  %118 = add i32 %117, 4
  store i32 %118, ptr %15, align 4
  br label %119

119:                                              ; preds = %148, %111
  %120 = load ptr, ptr %8, align 8
  %121 = load ptr, ptr %9, align 8
  %122 = load i32, ptr %15, align 4
  %123 = add i32 %122, 1
  store i32 %123, ptr %15, align 4
  %124 = load i32, ptr @hf_gsm_a_rr_ec_fua_gap_list, align 4
  %125 = call zeroext i1 @gsm_rr_csn_flag(ptr noundef %120, ptr noundef %121, i32 noundef %122, i32 noundef %124)
  br i1 %125, label %126, label %149

126:                                              ; preds = %119
  %127 = load ptr, ptr %8, align 8
  %128 = load ptr, ptr %9, align 8
  %129 = load i32, ptr %15, align 4
  %130 = add i32 %129, 1
  store i32 %130, ptr %15, align 4
  %131 = load i32, ptr @hf_gsm_a_rr_ec_start_fn_next_data_block_exist, align 4
  %132 = call zeroext i1 @gsm_rr_csn_flag(ptr noundef %127, ptr noundef %128, i32 noundef %129, i32 noundef %131)
  br i1 %132, label %141, label %133

133:                                              ; preds = %126
  %134 = load ptr, ptr %9, align 8
  %135 = load i32, ptr @hf_gsm_a_rr_ec_start_fn_next_data_block, align 4
  %136 = load ptr, ptr %8, align 8
  %137 = load i32, ptr %15, align 4
  %138 = call ptr @proto_tree_add_bits_item(ptr noundef %134, i32 noundef %135, ptr noundef %136, i32 noundef %137, i32 noundef 3, i32 noundef 0)
  %139 = load i32, ptr %15, align 4
  %140 = add i32 %139, 3
  store i32 %140, ptr %15, align 4
  br label %148

141:                                              ; preds = %126
  %142 = load ptr, ptr %9, align 8
  %143 = load i32, ptr @hf_gsm_a_rr_ec_start_fn_next_data_block, align 4
  %144 = load ptr, ptr %8, align 8
  %145 = load i32, ptr %15, align 4
  %146 = lshr i32 %145, 3
  %147 = call ptr @proto_tree_add_uint(ptr noundef %142, i32 noundef %143, ptr noundef %144, i32 noundef %146, i32 noundef 0, i32 noundef 0)
  br label %148

148:                                              ; preds = %141, %133
  br label %119, !llvm.loop !40

149:                                              ; preds = %119
  %150 = load i32, ptr %12, align 4
  %151 = trunc i32 %150 to i16
  call void @llvm.lifetime.end.p0(i64 4, ptr %15) #11
  ret i16 %151
}