; Function Attrs: null_pointer_is_valid sspstrong uwtable
define internal noundef zeroext i16 @de_rr_ec_fua(ptr noundef %0, ptr noundef %1, ptr readnone captures(none) %2, i32 noundef %3, i32 noundef %4, ptr readnone captures(none) %5, i32 %6) #3 {
  %8 = shl i32 %3, 3
  %9 = load i32, ptr @hf_gsm_a_rr_ec_enhanced_access_burst, align 4
  %10 = tail call ptr @proto_tree_add_bits_item(ptr noundef %1, i32 noundef %9, ptr noundef %0, i32 noundef %8, i32 noundef 1, i32 noundef 0)
  %11 = or disjoint i32 %8, 1
  %12 = or disjoint i32 %8, 2
  %13 = load i32, ptr @hf_gsm_a_rr_timing_adv_present, align 4
  %14 = ashr exact i32 %8, 3
  %15 = tail call zeroext i8 @tvb_get_uint8(ptr noundef %0, i32 noundef %14)
  %16 = tail call ptr @proto_tree_add_bits_item(ptr noundef %1, i32 noundef %13, ptr noundef %0, i32 noundef %11, i32 noundef 1, i32 noundef 0)
  %17 = and i8 %15, 64
  %.not = icmp eq i8 %17, 0
  br i1 %.not, label %22, label %18

18:                                               ; preds = %7
  %19 = load i32, ptr @hf_gsm_a_rr_timing_adv, align 4
  %20 = tail call ptr @proto_tree_add_bits_item(ptr noundef %1, i32 noundef %19, ptr noundef %0, i32 noundef %12, i32 noundef 6, i32 noundef 0)
  %21 = add i32 %8, 8
  br label %22

22:                                               ; preds = %18, %7
  %.0 = phi i32 [ %21, %18 ], [ %12, %7 ]
  %23 = load i32, ptr @hf_gsm_a_rr_ec_starting_ul_timeslot, align 4
  %24 = tail call ptr @proto_tree_add_bits_item(ptr noundef %1, i32 noundef %23, ptr noundef %0, i32 noundef %.0, i32 noundef 3, i32 noundef 0)
  %25 = add i32 %.0, 3
  %26 = load i32, ptr @hf_gsm_a_rr_tfi_assignment, align 4
  %27 = tail call ptr @proto_tree_add_bits_item(ptr noundef %1, i32 noundef %26, ptr noundef %0, i32 noundef %25, i32 noundef 5, i32 noundef 0)
  %28 = add i32 %.0, 8
  %29 = load i32, ptr @hf_gsm_a_rr_ec_starting_dl_timeslot_offset, align 4
  %30 = tail call ptr @proto_tree_add_bits_item(ptr noundef %1, i32 noundef %29, ptr noundef %0, i32 noundef %28, i32 noundef 2, i32 noundef 0)
  %31 = add i32 %.0, 10
  %32 = load i32, ptr @hf_gsm_a_rr_ec_overlaid_cdma_code, align 4
  %33 = tail call ptr @proto_tree_add_bits_item(ptr noundef %1, i32 noundef %32, ptr noundef %0, i32 noundef %31, i32 noundef 2, i32 noundef 0)
  %34 = add i32 %.0, 12
  %35 = add i32 %.0, 13
  %36 = load i32, ptr @hf_gsm_a_rr_ec_mcs_exist, align 4
  %37 = and i32 %34, 7
  %38 = lshr exact i32 128, %37
  %39 = ashr i32 %34, 3
  %40 = tail call zeroext i8 @tvb_get_uint8(ptr noundef %0, i32 noundef %39)
  %41 = tail call ptr @proto_tree_add_bits_item(ptr noundef %1, i32 noundef %36, ptr noundef %0, i32 noundef %34, i32 noundef 1, i32 noundef 0)
  %42 = zext i8 %40 to i32
  %43 = and i32 %38, %42
  %.not67 = icmp eq i32 %43, 0
  br i1 %.not67, label %48, label %44

44:                                               ; preds = %22
  %45 = load i32, ptr @hf_gsm_a_rr_egprs_mcs, align 4
  %46 = tail call ptr @proto_tree_add_bits_item(ptr noundef %1, i32 noundef %45, ptr noundef %0, i32 noundef %35, i32 noundef 4, i32 noundef 0)
  %47 = add i32 %.0, 17
  br label %48

48:                                               ; preds = %44, %22
  %.1 = phi i32 [ %47, %44 ], [ %35, %22 ]
  %49 = load i32, ptr @hf_gsm_a_rr_gamma, align 4
  %50 = tail call ptr @proto_tree_add_bits_item(ptr noundef %1, i32 noundef %49, ptr noundef %0, i32 noundef %.1, i32 noundef 5, i32 noundef 0)
  %51 = add i32 %.1, 5
  %52 = add i32 %.1, 6
  %53 = load i32, ptr @hf_gsm_a_rr_p0_present, align 4
  %54 = and i32 %51, 7
  %55 = lshr exact i32 128, %54
  %56 = ashr i32 %51, 3
  %57 = tail call zeroext i8 @tvb_get_uint8(ptr noundef %0, i32 noundef %56)
  %58 = tail call ptr @proto_tree_add_bits_item(ptr noundef %1, i32 noundef %53, ptr noundef %0, i32 noundef %51, i32 noundef 1, i32 noundef 0)
  %59 = zext i8 %57 to i32
  %60 = and i32 %55, %59
  %.not68 = icmp eq i32 %60, 0
  br i1 %.not68, label %68, label %61

61:                                               ; preds = %48
  %62 = load i32, ptr @hf_gsm_a_rr_p0, align 4
  %63 = tail call ptr @proto_tree_add_bits_item(ptr noundef %1, i32 noundef %62, ptr noundef %0, i32 noundef %52, i32 noundef 4, i32 noundef 0)
  %64 = add i32 %.1, 10
  %65 = load i32, ptr @hf_gsm_a_rr_pr_mode, align 4
  %66 = tail call ptr @proto_tree_add_bits_item(ptr noundef %1, i32 noundef %65, ptr noundef %0, i32 noundef %64, i32 noundef 1, i32 noundef 0)
  %67 = add i32 %.1, 11
  br label %68

68:                                               ; preds = %61, %48
  %.2 = phi i32 [ %67, %61 ], [ %52, %48 ]
  %69 = load i32, ptr @hf_gsm_a_rr_ec_start_first_ul_data_block, align 4
  %70 = tail call ptr @proto_tree_add_bits_item(ptr noundef %1, i32 noundef %69, ptr noundef %0, i32 noundef %.2, i32 noundef 4, i32 noundef 0)
  %71 = add i32 %.2, 4
  br label %72

72:                                               ; preds = %.backedge, %68
  %.3 = phi i32 [ %71, %68 ], [ %.3.be, %.backedge ]
  %73 = load i32, ptr @hf_gsm_a_rr_ec_fua_gap_list, align 4
  %74 = and i32 %.3, 7
  %75 = lshr exact i32 128, %74
  %76 = ashr i32 %.3, 3
  %77 = tail call zeroext i8 @tvb_get_uint8(ptr noundef %0, i32 noundef %76)
  %78 = tail call ptr @proto_tree_add_bits_item(ptr noundef %1, i32 noundef %73, ptr noundef %0, i32 noundef %.3, i32 noundef 1, i32 noundef 0)
  %79 = zext i8 %77 to i32
  %80 = and i32 %75, %79
  %.not69 = icmp eq i32 %80, 0
  br i1 %.not69, label %99, label %81

81:                                               ; preds = %72
  %82 = add i32 %.3, 1
  %83 = add i32 %.3, 2
  %84 = load i32, ptr @hf_gsm_a_rr_ec_start_fn_next_data_block_exist, align 4
  %85 = and i32 %82, 7
  %86 = lshr exact i32 128, %85
  %87 = ashr i32 %82, 3
  %88 = tail call zeroext i8 @tvb_get_uint8(ptr noundef %0, i32 noundef %87)
  %89 = tail call ptr @proto_tree_add_bits_item(ptr noundef %1, i32 noundef %84, ptr noundef %0, i32 noundef %82, i32 noundef 1, i32 noundef 0)
  %90 = zext i8 %88 to i32
  %91 = and i32 %86, %90
  %.not70 = icmp eq i32 %91, 0
  %92 = load i32, ptr @hf_gsm_a_rr_ec_start_fn_next_data_block, align 4
  br i1 %.not70, label %93, label %96

93:                                               ; preds = %81
  %94 = tail call ptr @proto_tree_add_bits_item(ptr noundef %1, i32 noundef %92, ptr noundef %0, i32 noundef %83, i32 noundef 3, i32 noundef 0)
  %95 = add i32 %.3, 5
  br label %.backedge

96:                                               ; preds = %81
  %97 = lshr i32 %83, 3
  %98 = tail call ptr @proto_tree_add_uint(ptr noundef %1, i32 noundef %92, ptr noundef %0, i32 noundef %97, i32 noundef 0, i32 noundef 0)
  br label %.backedge

.backedge:                                        ; preds = %96, %93
  %.3.be = phi i32 [ %83, %96 ], [ %95, %93 ]
  br label %72, !llvm.loop !43

99:                                               ; preds = %72
  %100 = trunc i32 %4 to i16
  ret i16 %100
}